target datalayout = "e-m:e-p270:32:32-p271:32:32-p272:64:64-i64:64-i128:128-f80:128-n8:16:32:64-S128"
target triple = "x86_64-pc-linux-gnu"

%struct.OSSL_TIME = type { i64 }
%struct.ssl_st = type { i32, ptr, ptr, ptr, %struct.CRYPTO_REF_COUNT, ptr, %struct.crypto_ex_data_st }
%struct.CRYPTO_REF_COUNT = type { i32 }
%struct.crypto_ex_data_st = type { ptr, ptr }
%struct.ssl_connection_st = type { %struct.ssl_st, ptr, i32, ptr, ptr, ptr, i32, ptr, i32, i32, i32, i32, %struct.OSSL_TIME, %struct.OSSL_TIME, %struct.ossl_statem_st, i32, ptr, ptr, i64, i64, i64, %struct.ossl_quic_tls_callbacks_st, ptr, ptr, %struct.anon, ptr, ptr, ptr, i32, ptr, %struct.ssl_dane_st, ptr, ptr, ptr, ptr, i32, [64 x i8], [64 x i8], [64 x i8], [64 x i8], [64 x i8], [64 x i8], [64 x i8], [64 x i8], [64 x i8], [64 x i8], [64 x i8], [64 x i8], ptr, [64 x i8], i64, i32, i64, [32 x i8], ptr, ptr, ptr, i64, ptr, [32 x i8], i64, i32, ptr, ptr, i32, i32, ptr, ptr, ptr, ptr, ptr, i64, ptr, ptr, i64, i32, i32, i32, i64, i32, i32, i64, i64, i64, %struct.anon.1, ptr, i32, ptr, ptr, ptr, i32, ptr, ptr, ptr, i32, i32, i32, i32, ptr, i64, i32, ptr, %struct.srp_ctx_st, ptr, %struct.record_layer_st, ptr, ptr, ptr, ptr, i64, i32, i32, i32, i64, i64, i64, ptr, ptr, ptr, ptr, ptr, i64, ptr, i64, ptr, i64 }
%struct.ossl_statem_st = type { i32, i32, i32, i32, i32, i32, i32, i32, i32, i32, i32, i32, i32, ptr, ptr, ptr, i8 }
%struct.ossl_quic_tls_callbacks_st = type { ptr, ptr, ptr, ptr, ptr, ptr }
%struct.anon = type { i64, [32 x i8], [32 x i8], ptr, ptr, i32, i32, i32, i32, [2 x i8], i32, i32, i32, i32, %struct.anon.0, [64 x i8], i64, [64 x i8], i64, i32, i32, ptr, i64, ptr, i64, i32, i8, i8, i16, ptr, i16 }
%struct.anon.0 = type { [128 x i8], i64, [128 x i8], i64, i64, i32, ptr, ptr, [4 x ptr], [4 x i16], i64, i32, ptr, i64, ptr, i64, ptr, ptr, ptr, i32, i64, ptr, i32, ptr, i64, ptr, i64, ptr, i64, ptr, ptr, ptr, ptr, i64, i64, ptr, ptr, i32, i32, i32, i32 }
%struct.ssl_dane_st = type { ptr, ptr, ptr, ptr, ptr, i32, i32, i32, i64 }
%struct.anon.1 = type { [29 x i8], ptr, ptr, ptr, i32, ptr, i16, i32, %struct.anon.2, i32, i32, i64, ptr, i64, ptr, i64, ptr, i64, ptr, i64, ptr, i64, ptr, ptr, ptr, ptr, ptr, ptr, ptr, i64, ptr, i64, i32, i32, i32, i32, ptr, i64, i32, i8, i32, [4 x i32], i32, i8, i8, i8, i8 }
%struct.anon.2 = type { ptr, ptr, ptr, i64 }
%struct.srp_ctx_st = type { ptr, ptr, ptr, ptr, ptr, ptr, ptr, ptr, ptr, ptr, ptr, ptr, ptr, ptr, i32, i64 }
%struct.record_layer_st = type { ptr, ptr, ptr, ptr, ptr, ptr, ptr, ptr, i64, i32, i64, [4 x i8], i64, i64, i8, ptr, i32, ptr, ptr, ptr, i64, i64, i64, i64, [32 x %struct.tls_record_st] }
%struct.tls_record_st = type { ptr, i32, i8, ptr, ptr, i64, i64, i16, [8 x i8] }
%struct.CLIENTHELLO_MSG = type { i32, i32, [32 x i8], i64, [32 x i8], i64, [255 x i8], %struct.PACKET, i64, [255 x i8], %struct.PACKET, i64, ptr }
%struct.PACKET = type { ptr, i64 }
%struct.raw_extension_st = type { %struct.PACKET, i32, i32, i32, i64 }

; Function Attrs: inlinehint nounwind uwtable
define internal ptr @PACKET_data(ptr noundef %0) #2 {
  %2 = alloca ptr, align 8
  store ptr %0, ptr %2, align 8, !tbaa !112
  %3 = load ptr, ptr %2, align 8, !tbaa !112
  %4 = getelementptr inbounds nuw %struct.PACKET, ptr %3, i32 0, i32 0
  %5 = load ptr, ptr %4, align 8, !tbaa !305
  ret ptr %5
}

; Function Attrs: inlinehint nounwind uwtable
define internal i64 @PACKET_remaining(ptr noundef %0) #2 {
  %2 = alloca ptr, align 8
  store ptr %0, ptr %2, align 8, !tbaa !112
  %3 = load ptr, ptr %2, align 8, !tbaa !112
  %4 = getelementptr inbounds nuw %struct.PACKET, ptr %3, i32 0, i32 1
  %5 = load i64, ptr %4, align 8, !tbaa !288
  ret i64 %5
}

; Function Attrs: nounwind uwtable
define i32 @tls_use_ticket(ptr noundef %0) #1 {
  %2 = alloca i32, align 4
  %3 = alloca ptr, align 8
  store ptr %0, ptr %3, align 8, !tbaa !25
  %4 = load ptr, ptr %3, align 8, !tbaa !25
  %5 = getelementptr inbounds nuw %struct.ssl_connection_st, ptr %4, i32 0, i32 74
  %6 = load i64, ptr %5, align 8, !tbaa !177
  %7 = and i64 %6, 16384
  %8 = icmp ne i64 %7, 0
  br i1 %8, label %9, label %10

9:                                                ; preds = %1
  store i32 0, ptr %2, align 4
  br label %13

10:                                               ; preds = %1
  %11 = load ptr, ptr %3, align 8, !tbaa !25
  %12 = call i32 @ssl_security(ptr noundef %11, i32 noundef 10, i32 noundef 0, i32 noundef 0, ptr noundef null)
  store i32 %12, ptr %2, align 4
  br label %13

13:                                               ; preds = %10, %9
  %14 = load i32, ptr %2, align 4
  ret i32 %14
}

; Function Attrs: nounwind uwtable
define i32 @tls_get_ticket_from_client(ptr noundef %0, ptr noundef %1, ptr noundef %2) #1 {
  %4 = alloca i32, align 4
  %5 = alloca ptr, align 8
  %6 = alloca ptr, align 8
  %7 = alloca ptr, align 8
  %8 = alloca i64, align 8
  %9 = alloca ptr, align 8
  %10 = alloca i32, align 4
  store ptr %0, ptr %5, align 8, !tbaa !25
  store ptr %1, ptr %6, align 8, !tbaa !112
  store ptr %2, ptr %7, align 8, !tbaa !276
  call void @llvm.lifetime.start.p0(i64 8, ptr %8) #8
  call void @llvm.lifetime.start.p0(i64 8, ptr %9) #8
  %11 = load ptr, ptr %7, align 8, !tbaa !276
  store ptr null, ptr %11, align 8, !tbaa !278
  %12 = load ptr, ptr %5, align 8, !tbaa !25
  %13 = getelementptr inbounds nuw %struct.ssl_connection_st, ptr %12, i32 0, i32 84
  %14 = getelementptr inbounds nuw %struct.anon.1, ptr %13, i32 0, i32 9
  store i32 0, ptr %14, align 8, !tbaa !279
  %15 = load ptr, ptr %5, align 8, !tbaa !25
  %16 = getelementptr inbounds nuw %struct.ssl_connection_st, ptr %15, i32 0, i32 2
  %17 = load i32, ptr %16, align 8, !tbaa !79
  %18 = icmp sle i32 %17, 768
  br i1 %18, label %23, label %19

19:                                               ; preds = %3
  %20 = load ptr, ptr %5, align 8, !tbaa !25
  %21 = call i32 @tls_use_ticket(ptr noundef %20)
  %22 = icmp ne i32 %21, 0
  br i1 %22, label %24, label %23

23:                                               ; preds = %19, %3
  store i32 2, ptr %4, align 4
  store i32 1, ptr %10, align 4
  br label %51

24:                                               ; preds = %19
  %25 = load ptr, ptr %6, align 8, !tbaa !112
  %26 = getelementptr inbounds nuw %struct.CLIENTHELLO_MSG, ptr %25, i32 0, i32 12
  %27 = load ptr, ptr %26, align 8, !tbaa !280
  %28 = getelementptr inbounds %struct.raw_extension_st, ptr %27, i64 6
  store ptr %28, ptr %9, align 8, !tbaa !284
  %29 = load ptr, ptr %9, align 8, !tbaa !284
  %30 = getelementptr inbounds nuw %struct.raw_extension_st, ptr %29, i32 0, i32 1
  %31 = load i32, ptr %30, align 8, !tbaa !285
  %32 = icmp ne i32 %31, 0
  br i1 %32, label %34, label %33

33:                                               ; preds = %24
  store i32 2, ptr %4, align 4
  store i32 1, ptr %10, align 4
  br label %51

34:                                               ; preds = %24
  %35 = load ptr, ptr %9, align 8, !tbaa !284
  %36 = getelementptr inbounds nuw %struct.raw_extension_st, ptr %35, i32 0, i32 0
  %37 = call i64 @PACKET_remaining(ptr noundef %36)
  store i64 %37, ptr %8, align 8, !tbaa !3
  %38 = load ptr, ptr %5, align 8, !tbaa !25
  %39 = load ptr, ptr %9, align 8, !tbaa !284
  %40 = getelementptr inbounds nuw %struct.raw_extension_st, ptr %39, i32 0, i32 0
  %41 = call ptr @PACKET_data(ptr noundef %40)
  %42 = load i64, ptr %8, align 8, !tbaa !3
  %43 = load ptr, ptr %6, align 8, !tbaa !112
  %44 = getelementptr inbounds nuw %struct.CLIENTHELLO_MSG, ptr %43, i32 0, i32 4
  %45 = getelementptr inbounds [32 x i8], ptr %44, i64 0, i64 0
  %46 = load ptr, ptr %6, align 8, !tbaa !112
  %47 = getelementptr inbounds nuw %struct.CLIENTHELLO_MSG, ptr %46, i32 0, i32 3
  %48 = load i64, ptr %47, align 8, !tbaa !287
  %49 = load ptr, ptr %7, align 8, !tbaa !276
  %50 = call i32 @tls_decrypt_ticket(ptr noundef %38, ptr noundef %41, i64 noundef %42, ptr noundef %45, i64 noundef %48, ptr noundef %49)
  store i32 %50, ptr %4, align 4
  store i32 1, ptr %10, align 4
  br label %51

51:                                               ; preds = %34, %33, %23
  call void @llvm.lifetime.end.p0(i64 8, ptr %9) #8
  call void @llvm.lifetime.end.p0(i64 8, ptr %8) #8
  %52 = load i32, ptr %4, align 4
  ret i32 %52
}