; Function Attrs: nounwind uwtable
define range(i32 0, 7) i32 @tls_get_ticket_from_client(ptr noundef initializes((2656, 2660)) %0, ptr noundef readonly captures(none) %1, ptr noundef writeonly captures(none) initializes((0, 8)) %2) local_unnamed_addr #2 {
  store ptr null, ptr %2, align 8, !tbaa !241
  %4 = getelementptr inbounds nuw i8, ptr %0, i64 2656
  store i32 0, ptr %4, align 8, !tbaa !242
  %5 = getelementptr inbounds nuw i8, ptr %0, i64 72
  %6 = load i32, ptr %5, align 8, !tbaa !75
  %7 = icmp slt i32 %6, 769
  br i1 %7, label %tls_use_ticket.exit.thread, label %8

8:                                                ; preds = %3
  %9 = getelementptr inbounds nuw i8, ptr %0, i64 2480
  %10 = load i64, ptr %9, align 8, !tbaa !155
  %11 = and i64 %10, 16384
  %.not.i = icmp eq i64 %11, 0
  br i1 %.not.i, label %tls_use_ticket.exit, label %tls_use_ticket.exit.thread

tls_use_ticket.exit:                              ; preds = %8
  %12 = tail call i32 @ssl_security(ptr noundef nonnull %0, i32 noundef 10, i32 noundef 0, i32 noundef 0, ptr noundef null) #14
  %.not = icmp eq i32 %12, 0
  br i1 %.not, label %tls_use_ticket.exit.thread, label %13

13:                                               ; preds = %tls_use_ticket.exit
  %14 = getelementptr inbounds nuw i8, ptr %1, i64 648
  %15 = load ptr, ptr %14, align 8, !tbaa !243
  %16 = getelementptr inbounds nuw i8, ptr %15, i64 256
  %17 = load i32, ptr %16, align 8, !tbaa !247
  %.not13 = icmp eq i32 %17, 0
  br i1 %.not13, label %tls_use_ticket.exit.thread, label %18

18:                                               ; preds = %13
  %19 = getelementptr inbounds nuw i8, ptr %15, i64 240
  %20 = getelementptr i8, ptr %15, i64 248
  %.val = load i64, ptr %20, align 8, !tbaa !249
  %.val14 = load ptr, ptr %19, align 8, !tbaa !250
  %21 = getelementptr inbounds nuw i8, ptr %1, i64 48
  %22 = getelementptr inbounds nuw i8, ptr %1, i64 40
  %23 = load i64, ptr %22, align 8, !tbaa !251
  %24 = tail call i32 @tls_decrypt_ticket(ptr noundef nonnull %0, ptr noundef %.val14, i64 noundef %.val, ptr noundef nonnull %21, i64 noundef %23, ptr noundef nonnull %2)
  br label %tls_use_ticket.exit.thread

tls_use_ticket.exit.thread:                       ; preds = %8, %13, %3, %tls_use_ticket.exit, %18
  %.0 = phi i32 [ %24, %18 ], [ 2, %tls_use_ticket.exit ], [ 2, %3 ], [ 2, %13 ], [ 2, %8 ]
  ret i32 %.0
}